; Function Attrs: mustprogress uwtable
define hidden void @_ZN4lean7mk_imaxERKNS_5levelES2_(ptr dead_on_unwind noalias writable sret(%"class.lean::level") align 8 %0, ptr noundef nonnull align 8 dereferenceable(8) %1, ptr noundef nonnull align 8 dereferenceable(8) %2) local_unnamed_addr #0 {
  %4 = tail call noundef zeroext i1 @_ZN4lean11is_not_zeroERKNS_5levelE(ptr noundef nonnull align 8 dereferenceable(8) %2)
  br i1 %4, label %5, label %6

5:                                                ; preds = %3
  tail call void @_ZN4lean6mk_maxERKNS_5levelES2_(ptr dead_on_unwind writable sret(%"class.lean::level") align 8 %0, ptr noundef nonnull align 8 dereferenceable(8) %1, ptr noundef nonnull align 8 dereferenceable(8) %2)
  br label %_ZN4lean5levelC2ERKS0_.exit

6:                                                ; preds = %3
  %7 = load ptr, ptr %2, align 8, !tbaa !3
  %8 = ptrtoint ptr %7 to i64
  %9 = and i64 %8, 1
  %.not.i.i.i = icmp eq i64 %9, 0
  br i1 %.not.i.i.i, label %_ZN4lean7is_zeroERKNS_5levelE.exit, label %12

_ZN4lean7is_zeroERKNS_5levelE.exit:               ; preds = %6
  %10 = getelementptr i8, ptr %7, i64 4
  %.val.i.i.i = load i32, ptr %10, align 4
  %11 = icmp ult i32 %.val.i.i.i, 16777216
  br i1 %11, label %13, label %19

12:                                               ; preds = %6
  store ptr %7, ptr %0, align 8, !tbaa !3
  br label %_ZN4lean5levelC2ERKS0_.exit

13:                                               ; preds = %_ZN4lean7is_zeroERKNS_5levelE.exit
  store ptr %7, ptr %0, align 8, !tbaa !3
  %.val.i.i.i.i = load i32, ptr %7, align 4, !tbaa !8
  %14 = icmp sgt i32 %.val.i.i.i.i, 0
  br i1 %14, label %15, label %17, !prof !11

15:                                               ; preds = %13
  %16 = add nuw nsw i32 %.val.i.i.i.i, 1
  store i32 %16, ptr %7, align 4, !tbaa !8
  br label %_ZN4lean5levelC2ERKS0_.exit

17:                                               ; preds = %13
  %.not.i.i.i.i = icmp eq i32 %.val.i.i.i.i, 0
  br i1 %.not.i.i.i.i, label %_ZN4lean5levelC2ERKS0_.exit, label %18

18:                                               ; preds = %17
  tail call void @lean_inc_ref_cold(ptr noundef nonnull %7)
  br label %_ZN4lean5levelC2ERKS0_.exit

19:                                               ; preds = %_ZN4lean7is_zeroERKNS_5levelE.exit
  %20 = load ptr, ptr %1, align 8, !tbaa !3
  %21 = ptrtoint ptr %20 to i64
  %22 = and i64 %21, 1
  %.not.i.i.i13 = icmp eq i64 %22, 0
  br i1 %.not.i.i.i13, label %_ZN4lean7is_zeroERKNS_5levelE.exit15, label %_ZN4lean7is_zeroERKNS_5levelE.exit15.thread

_ZN4lean7is_zeroERKNS_5levelE.exit15:             ; preds = %19
  %23 = getelementptr i8, ptr %20, i64 4
  %.val.i.i.i14 = load i32, ptr %23, align 4
  %24 = icmp ult i32 %.val.i.i.i14, 16777216
  br i1 %24, label %_ZN4lean7is_zeroERKNS_5levelE.exit15.thread, label %30

_ZN4lean7is_zeroERKNS_5levelE.exit15.thread:      ; preds = %19, %_ZN4lean7is_zeroERKNS_5levelE.exit15
  store ptr %7, ptr %0, align 8, !tbaa !3
  %.val.i.i.i.i17 = load i32, ptr %7, align 4, !tbaa !8
  %25 = icmp sgt i32 %.val.i.i.i.i17, 0
  br i1 %25, label %26, label %28, !prof !11

26:                                               ; preds = %_ZN4lean7is_zeroERKNS_5levelE.exit15.thread
  %27 = add nuw nsw i32 %.val.i.i.i.i17, 1
  store i32 %27, ptr %7, align 4, !tbaa !8
  br label %_ZN4lean5levelC2ERKS0_.exit

28:                                               ; preds = %_ZN4lean7is_zeroERKNS_5levelE.exit15.thread
  %.not.i.i.i.i18 = icmp eq i32 %.val.i.i.i.i17, 0
  br i1 %.not.i.i.i.i18, label %_ZN4lean5levelC2ERKS0_.exit, label %29

29:                                               ; preds = %28
  tail call void @lean_inc_ref_cold(ptr noundef nonnull %7)
  br label %_ZN4lean5levelC2ERKS0_.exit

30:                                               ; preds = %_ZN4lean7is_zeroERKNS_5levelE.exit15
  %31 = tail call noundef zeroext i1 @_ZN4leaneqERKNS_5levelES2_(ptr noundef nonnull align 8 dereferenceable(8) %1, ptr noundef nonnull align 8 dereferenceable(8) %2)
  br i1 %31, label %32, label %42

32:                                               ; preds = %30
  %33 = load ptr, ptr %1, align 8, !tbaa !3
  store ptr %33, ptr %0, align 8, !tbaa !3
  %34 = ptrtoint ptr %33 to i64
  %35 = and i64 %34, 1
  %.not.i.i.i20 = icmp eq i64 %35, 0
  br i1 %.not.i.i.i20, label %36, label %_ZN4lean5levelC2ERKS0_.exit

36:                                               ; preds = %32
  %.val.i.i.i.i21 = load i32, ptr %33, align 4, !tbaa !8
  %37 = icmp sgt i32 %.val.i.i.i.i21, 0
  br i1 %37, label %38, label %40, !prof !11

38:                                               ; preds = %36
  %39 = add nuw nsw i32 %.val.i.i.i.i21, 1
  store i32 %39, ptr %33, align 4, !tbaa !8
  br label %_ZN4lean5levelC2ERKS0_.exit

40:                                               ; preds = %36
  %.not.i.i.i.i22 = icmp eq i32 %.val.i.i.i.i21, 0
  br i1 %.not.i.i.i.i22, label %_ZN4lean5levelC2ERKS0_.exit, label %41

41:                                               ; preds = %40
  tail call void @lean_inc_ref_cold(ptr noundef nonnull %33)
  br label %_ZN4lean5levelC2ERKS0_.exit

42:                                               ; preds = %30
  tail call void @llvm.experimental.noalias.scope.decl(metadata !36)
  %43 = load ptr, ptr %1, align 8, !tbaa !3, !noalias !36
  %44 = ptrtoint ptr %43 to i64
  %45 = and i64 %44, 1
  %.not.i.i.i24 = icmp eq i64 %45, 0
  br i1 %.not.i.i.i24, label %46, label %_ZNK4lean10object_ref10to_obj_argEv.exit.i

46:                                               ; preds = %42
  %.val.i.i.i.i25 = load i32, ptr %43, align 4, !tbaa !8, !noalias !36
  %47 = icmp sgt i32 %.val.i.i.i.i25, 0
  br i1 %47, label %48, label %50, !prof !11

48:                                               ; preds = %46
  %49 = add nuw nsw i32 %.val.i.i.i.i25, 1
  store i32 %49, ptr %43, align 4, !tbaa !8, !noalias !36
  br label %_ZNK4lean10object_ref10to_obj_argEv.exit.i

50:                                               ; preds = %46
  %.not.i.i.i.i26 = icmp eq i32 %.val.i.i.i.i25, 0
  br i1 %.not.i.i.i.i26, label %_ZNK4lean10object_ref10to_obj_argEv.exit.i, label %51

51:                                               ; preds = %50
  tail call void @lean_inc_ref_cold(ptr noundef nonnull %43), !noalias !36
  %.pre.i.i = load ptr, ptr %1, align 8, !tbaa !3, !noalias !36
  br label %_ZNK4lean10object_ref10to_obj_argEv.exit.i

_ZNK4lean10object_ref10to_obj_argEv.exit.i:       ; preds = %51, %50, %48, %42
  %52 = phi ptr [ %43, %42 ], [ %43, %48 ], [ %43, %50 ], [ %.pre.i.i, %51 ]
  %53 = load ptr, ptr %2, align 8, !tbaa !3, !noalias !36
  %54 = ptrtoint ptr %53 to i64
  %55 = and i64 %54, 1
  %.not.i.i2.i = icmp eq i64 %55, 0
  br i1 %.not.i.i2.i, label %56, label %_ZN4lean12mk_imax_coreERKNS_5levelES2_.exit

56:                                               ; preds = %_ZNK4lean10object_ref10to_obj_argEv.exit.i
  %.val.i.i.i3.i = load i32, ptr %53, align 4, !tbaa !8, !noalias !36
  %57 = icmp sgt i32 %.val.i.i.i3.i, 0
  br i1 %57, label %58, label %60, !prof !11

58:                                               ; preds = %56
  %59 = add nuw nsw i32 %.val.i.i.i3.i, 1
  store i32 %59, ptr %53, align 4, !tbaa !8, !noalias !36
  br label %_ZN4lean12mk_imax_coreERKNS_5levelES2_.exit

60:                                               ; preds = %56
  %.not.i.i.i4.i = icmp eq i32 %.val.i.i.i3.i, 0
  br i1 %.not.i.i.i4.i, label %_ZN4lean12mk_imax_coreERKNS_5levelES2_.exit, label %61

61:                                               ; preds = %60
  tail call void @lean_inc_ref_cold(ptr noundef nonnull %53), !noalias !36
  %.pre.i5.i = load ptr, ptr %2, align 8, !tbaa !3, !noalias !36
  br label %_ZN4lean12mk_imax_coreERKNS_5levelES2_.exit

_ZN4lean12mk_imax_coreERKNS_5levelES2_.exit:      ; preds = %_ZNK4lean10object_ref10to_obj_argEv.exit.i, %58, %60, %61
  %62 = phi ptr [ %53, %_ZNK4lean10object_ref10to_obj_argEv.exit.i ], [ %53, %58 ], [ %53, %60 ], [ %.pre.i5.i, %61 ]
  %63 = tail call ptr @lean_level_mk_imax(ptr noundef %52, ptr noundef %62), !noalias !36
  store ptr %63, ptr %0, align 8, !tbaa !3, !alias.scope !36
  br label %_ZN4lean5levelC2ERKS0_.exit

_ZN4lean5levelC2ERKS0_.exit:                      ; preds = %41, %40, %38, %32, %29, %28, %26, %18, %17, %15, %12, %_ZN4lean12mk_imax_coreERKNS_5levelES2_.exit, %5
  ret void
}